; Function Attrs: nounwind uwtable
define ptr @l_List_forIn_x27_loop___at_Lean_Elab_Deriving_Hashable_mkMatch_mkAlts___spec__6___lambda__1___boxed(ptr noundef %0, ptr noundef %1, ptr noundef %2, ptr noundef %3, ptr noundef %4, ptr noundef %5, ptr noundef %6, ptr noundef %7, ptr noundef %8, ptr noundef %9, ptr noundef %10, ptr noundef %11, ptr noundef %12, ptr noundef %13, ptr noundef %14) #0 {
  %16 = tail call ptr @l_List_forIn_x27_loop___at_Lean_Elab_Deriving_Hashable_mkMatch_mkAlts___spec__6___lambda__1(ptr noundef %0, ptr noundef %1, ptr noundef %2, ptr noundef %3, ptr noundef %4, ptr noundef %5, ptr noundef %6, ptr poison, ptr poison, ptr poison, ptr noundef %10, ptr noundef %11, ptr noundef %12, ptr noundef %13, ptr noundef %14)
  %17 = ptrtoint ptr %9 to i64
  %18 = and i64 %17, 1
  %.not = icmp eq i64 %18, 0
  br i1 %.not, label %19, label %lean_dec.exit30

19:                                               ; preds = %15
  %20 = load i32, ptr %9, align 4, !tbaa !8
  %21 = icmp sgt i32 %20, 1
  br i1 %21, label %22, label %24, !prof !11

22:                                               ; preds = %19
  %23 = add nsw i32 %20, -1
  store i32 %23, ptr %9, align 4, !tbaa !8
  br label %lean_dec.exit30

24:                                               ; preds = %19
  %.not.i = icmp eq i32 %20, 0
  br i1 %.not.i, label %lean_dec.exit30, label %25

25:                                               ; preds = %24
  tail call void @lean_dec_ref_cold(ptr noundef nonnull %9) #5
  br label %lean_dec.exit30

lean_dec.exit30:                                  ; preds = %25, %24, %22, %15
  %26 = ptrtoint ptr %8 to i64
  %27 = and i64 %26, 1
  %.not45 = icmp eq i64 %27, 0
  br i1 %.not45, label %28, label %lean_dec.exit29

28:                                               ; preds = %lean_dec.exit30
  %29 = load i32, ptr %8, align 4, !tbaa !8
  %30 = icmp sgt i32 %29, 1
  br i1 %30, label %31, label %33, !prof !11

31:                                               ; preds = %28
  %32 = add nsw i32 %29, -1
  store i32 %32, ptr %8, align 4, !tbaa !8
  br label %lean_dec.exit29

33:                                               ; preds = %28
  %.not.i31 = icmp eq i32 %29, 0
  br i1 %.not.i31, label %lean_dec.exit29, label %34

34:                                               ; preds = %33
  tail call void @lean_dec_ref_cold(ptr noundef nonnull %8) #5
  br label %lean_dec.exit29

lean_dec.exit29:                                  ; preds = %34, %33, %31, %lean_dec.exit30
  %35 = ptrtoint ptr %7 to i64
  %36 = and i64 %35, 1
  %.not46 = icmp eq i64 %36, 0
  br i1 %.not46, label %37, label %lean_dec.exit28

37:                                               ; preds = %lean_dec.exit29
  %38 = load i32, ptr %7, align 4, !tbaa !8
  %39 = icmp sgt i32 %38, 1
  br i1 %39, label %40, label %42, !prof !11

40:                                               ; preds = %37
  %41 = add nsw i32 %38, -1
  store i32 %41, ptr %7, align 4, !tbaa !8
  br label %lean_dec.exit28

42:                                               ; preds = %37
  %.not.i33 = icmp eq i32 %38, 0
  br i1 %.not.i33, label %lean_dec.exit28, label %43

43:                                               ; preds = %42
  tail call void @lean_dec_ref_cold(ptr noundef nonnull %7) #5
  br label %lean_dec.exit28

lean_dec.exit28:                                  ; preds = %43, %42, %40, %lean_dec.exit29
  %44 = ptrtoint ptr %6 to i64
  %45 = and i64 %44, 1
  %.not47 = icmp eq i64 %45, 0
  br i1 %.not47, label %46, label %lean_dec.exit27

46:                                               ; preds = %lean_dec.exit28
  %47 = load i32, ptr %6, align 4, !tbaa !8
  %48 = icmp sgt i32 %47, 1
  br i1 %48, label %49, label %51, !prof !11

49:                                               ; preds = %46
  %50 = add nsw i32 %47, -1
  store i32 %50, ptr %6, align 4, !tbaa !8
  br label %lean_dec.exit27

51:                                               ; preds = %46
  %.not.i35 = icmp eq i32 %47, 0
  br i1 %.not.i35, label %lean_dec.exit27, label %52

52:                                               ; preds = %51
  tail call void @lean_dec_ref_cold(ptr noundef nonnull %6) #5
  br label %lean_dec.exit27

lean_dec.exit27:                                  ; preds = %52, %51, %49, %lean_dec.exit28
  %53 = ptrtoint ptr %4 to i64
  %54 = and i64 %53, 1
  %.not48 = icmp eq i64 %54, 0
  br i1 %.not48, label %55, label %lean_dec.exit26

55:                                               ; preds = %lean_dec.exit27
  %56 = load i32, ptr %4, align 4, !tbaa !8
  %57 = icmp sgt i32 %56, 1
  br i1 %57, label %58, label %60, !prof !11

58:                                               ; preds = %55
  %59 = add nsw i32 %56, -1
  store i32 %59, ptr %4, align 4, !tbaa !8
  br label %lean_dec.exit26

60:                                               ; preds = %55
  %.not.i37 = icmp eq i32 %56, 0
  br i1 %.not.i37, label %lean_dec.exit26, label %61

61:                                               ; preds = %60
  tail call void @lean_dec_ref_cold(ptr noundef nonnull %4) #5
  br label %lean_dec.exit26

lean_dec.exit26:                                  ; preds = %61, %60, %58, %lean_dec.exit27
  %62 = ptrtoint ptr %3 to i64
  %63 = and i64 %62, 1
  %.not49 = icmp eq i64 %63, 0
  br i1 %.not49, label %64, label %lean_dec.exit25

64:                                               ; preds = %lean_dec.exit26
  %65 = load i32, ptr %3, align 4, !tbaa !8
  %66 = icmp sgt i32 %65, 1
  br i1 %66, label %67, label %69, !prof !11

67:                                               ; preds = %64
  %68 = add nsw i32 %65, -1
  store i32 %68, ptr %3, align 4, !tbaa !8
  br label %lean_dec.exit25

69:                                               ; preds = %64
  %.not.i39 = icmp eq i32 %65, 0
  br i1 %.not.i39, label %lean_dec.exit25, label %70

70:                                               ; preds = %69
  tail call void @lean_dec_ref_cold(ptr noundef nonnull %3) #5
  br label %lean_dec.exit25

lean_dec.exit25:                                  ; preds = %70, %69, %67, %lean_dec.exit26
  %71 = ptrtoint ptr %2 to i64
  %72 = and i64 %71, 1
  %.not50 = icmp eq i64 %72, 0
  br i1 %.not50, label %73, label %lean_dec.exit24

73:                                               ; preds = %lean_dec.exit25
  %74 = load i32, ptr %2, align 4, !tbaa !8
  %75 = icmp sgt i32 %74, 1
  br i1 %75, label %76, label %78, !prof !11

76:                                               ; preds = %73
  %77 = add nsw i32 %74, -1
  store i32 %77, ptr %2, align 4, !tbaa !8
  br label %lean_dec.exit24

78:                                               ; preds = %73
  %.not.i41 = icmp eq i32 %74, 0
  br i1 %.not.i41, label %lean_dec.exit24, label %79

79:                                               ; preds = %78
  tail call void @lean_dec_ref_cold(ptr noundef nonnull %2) #5
  br label %lean_dec.exit24

lean_dec.exit24:                                  ; preds = %79, %78, %76, %lean_dec.exit25
  %80 = ptrtoint ptr %0 to i64
  %81 = and i64 %80, 1
  %.not51 = icmp eq i64 %81, 0
  br i1 %.not51, label %82, label %lean_dec.exit

82:                                               ; preds = %lean_dec.exit24
  %83 = load i32, ptr %0, align 4, !tbaa !8
  %84 = icmp sgt i32 %83, 1
  br i1 %84, label %85, label %87, !prof !11

85:                                               ; preds = %82
  %86 = add nsw i32 %83, -1
  store i32 %86, ptr %0, align 4, !tbaa !8
  br label %lean_dec.exit

87:                                               ; preds = %82
  %.not.i43 = icmp eq i32 %83, 0
  br i1 %.not.i43, label %lean_dec.exit, label %88

88:                                               ; preds = %87
  tail call void @lean_dec_ref_cold(ptr noundef nonnull %0) #5
  br label %lean_dec.exit

lean_dec.exit:                                    ; preds = %88, %87, %85, %lean_dec.exit24
  ret ptr %16
}